; Function Attrs: nounwind uwtable
define internal noundef i32 @parse(ptr noundef captures(none) %0, ptr noundef %1, ptr noundef writeonly captures(none) initializes((0, 8)) %2, ptr noundef writeonly captures(none) initializes((0, 4)) %3, ptr noundef %4, i32 noundef returned %5) #0 {
  %7 = alloca %struct.RangeCoder, align 8
  %8 = alloca [32 x i8], align 16
  %9 = load ptr, ptr %0, align 8, !tbaa !4
  call void @llvm.lifetime.start.p0(i64 560, ptr nonnull %7) #4
  store ptr %4, ptr %2, align 8, !tbaa !12
  store i32 %5, ptr %3, align 4, !tbaa !14
  %10 = getelementptr inbounds nuw i8, ptr %9, i64 25248
  %11 = load i32, ptr %10, align 8, !tbaa !15
  %.not = icmp eq i32 %11, 0
  br i1 %.not, label %12, label %.critedge

12:                                               ; preds = %6
  %13 = tail call i32 @ff_ffv1_common_init(ptr noundef %1, ptr noundef nonnull %9) #4
  store i32 1, ptr %10, align 8, !tbaa !15
  %14 = icmp slt i32 %13, 0
  br i1 %14, label %75, label %15

15:                                               ; preds = %12
  %16 = getelementptr inbounds nuw i8, ptr %1, i64 80
  %17 = load i32, ptr %16, align 8, !tbaa !24
  %18 = icmp sgt i32 %17, 0
  br i1 %18, label %19, label %.critedge

19:                                               ; preds = %15
  %20 = tail call i32 @ff_ffv1_read_extra_header(ptr noundef nonnull %9) #4
  %21 = icmp slt i32 %20, 0
  br i1 %21, label %75, label %.critedge

.critedge:                                        ; preds = %15, %19, %6
  call void @ff_init_range_decoder(ptr noundef nonnull %7, ptr noundef %4, i32 noundef %5) #4
  call void @ff_build_rac_states(ptr noundef nonnull %7, i32 noundef 214748364, i32 noundef 248) #4
  %22 = getelementptr inbounds nuw i8, ptr %9, i64 8
  store ptr %1, ptr %22, align 8, !tbaa !40
  %23 = getelementptr inbounds nuw i8, ptr %7, i64 4
  %24 = load i32, ptr %23, align 4, !tbaa !41
  %25 = shl nsw i32 %24, 7
  %26 = ashr i32 %24, 1
  %27 = sub nsw i32 %24, %26
  %28 = load i32, ptr %7, align 8, !tbaa !43
  %29 = icmp slt i32 %28, %27
  br i1 %29, label %30, label %35

30:                                               ; preds = %.critedge
  %31 = icmp slt i32 %27, 256
  br i1 %31, label %32, label %get_rac.exit.thread

32:                                               ; preds = %30
  %33 = shl i32 %27, 8
  store i32 %33, ptr %23, align 4, !tbaa !41
  %34 = shl i32 %28, 8
  store i32 %34, ptr %7, align 8, !tbaa !43
  br label %get_rac.exit.thread

35:                                               ; preds = %.critedge
  %36 = sub nsw i32 %28, %27
  store i32 %36, ptr %7, align 8, !tbaa !43
  store i32 %26, ptr %23, align 4, !tbaa !41
  %37 = icmp slt i32 %26, 256
  br i1 %37, label %38, label %59

38:                                               ; preds = %35
  %39 = and i32 %25, -256
  store i32 %39, ptr %23, align 4, !tbaa !41
  %40 = shl i32 %36, 8
  store i32 %40, ptr %7, align 8, !tbaa !43
  %41 = getelementptr inbounds nuw i8, ptr %7, i64 536
  %42 = load ptr, ptr %41, align 8, !tbaa !44
  %43 = getelementptr inbounds nuw i8, ptr %7, i64 544
  %44 = load ptr, ptr %43, align 8, !tbaa !45
  %45 = icmp ult ptr %42, %44
  br i1 %45, label %46, label %51

46:                                               ; preds = %38
  %47 = load i8, ptr %42, align 1, !tbaa !46
  %48 = zext i8 %47 to i32
  %49 = or disjoint i32 %40, %48
  store i32 %49, ptr %7, align 8, !tbaa !43
  %50 = getelementptr inbounds nuw i8, ptr %42, i64 1
  store ptr %50, ptr %41, align 8, !tbaa !44
  br label %59

51:                                               ; preds = %38
  %52 = getelementptr inbounds nuw i8, ptr %7, i64 552
  %53 = load i32, ptr %52, align 8, !tbaa !47
  %54 = add nsw i32 %53, 1
  store i32 %54, ptr %52, align 8, !tbaa !47
  br label %59

get_rac.exit.thread:                              ; preds = %32, %30
  %55 = getelementptr inbounds nuw i8, ptr %0, i64 232
  store i32 0, ptr %55, align 8, !tbaa !48
  %56 = getelementptr inbounds nuw i8, ptr %0, i64 40
  store i32 1, ptr %56, align 8, !tbaa !49
  %57 = getelementptr inbounds nuw i8, ptr %0, i64 300
  store i32 0, ptr %57, align 4, !tbaa !50
  %58 = getelementptr inbounds nuw i8, ptr %0, i64 304
  store i32 0, ptr %58, align 8, !tbaa !51
  br label %65

59:                                               ; preds = %51, %46, %35
  %60 = getelementptr inbounds nuw i8, ptr %0, i64 232
  store i32 1, ptr %60, align 8, !tbaa !48
  %61 = getelementptr inbounds nuw i8, ptr %0, i64 40
  store i32 1, ptr %61, align 8, !tbaa !49
  %62 = getelementptr inbounds nuw i8, ptr %0, i64 300
  store i32 0, ptr %62, align 4, !tbaa !50
  %63 = getelementptr inbounds nuw i8, ptr %0, i64 304
  store i32 0, ptr %63, align 8, !tbaa !51
  call void @llvm.lifetime.start.p0(i64 32, ptr nonnull %8) #4
  call void @llvm.memset.p0.i64(ptr noundef nonnull align 16 dereferenceable(32) %8, i8 -128, i64 32, i1 false)
  %64 = call i32 @ff_ffv1_parse_header(ptr noundef nonnull %9, ptr noundef nonnull %7, ptr noundef nonnull %8) #4
  call void @llvm.lifetime.end.p0(i64 32, ptr nonnull %8) #4
  br label %65

65:                                               ; preds = %get_rac.exit.thread, %59
  %66 = getelementptr inbounds nuw i8, ptr %9, i64 4188
  %67 = load i32, ptr %66, align 4, !tbaa !52
  %68 = getelementptr inbounds nuw i8, ptr %0, i64 312
  store i32 %67, ptr %68, align 8, !tbaa !53
  %69 = getelementptr inbounds nuw i8, ptr %9, i64 4192
  %70 = load i32, ptr %69, align 8, !tbaa !54
  %71 = getelementptr inbounds nuw i8, ptr %0, i64 316
  store i32 %70, ptr %71, align 4, !tbaa !55
  %72 = getelementptr inbounds nuw i8, ptr %9, i64 4284
  %73 = load i32, ptr %72, align 4, !tbaa !56
  %74 = getelementptr inbounds nuw i8, ptr %0, i64 328
  store i32 %73, ptr %74, align 8, !tbaa !57
  br label %75

75:                                               ; preds = %12, %19, %65
  call void @llvm.lifetime.end.p0(i64 560, ptr nonnull %7) #4
  ret i32 %5
}